ccopy_reg
_reconstructor
p0
(cgoogle.oauth2.credentials
Credentials
p1
c__builtin__
object
p2
Ntp3
Rp4
(dp5
S'_quota_project_id'
p6
NsS'_token_uri'
p7
Vhttps://oauth2.googleapis.com/token
p8
sS'_client_secret'
p9
V49v_YgRtkoRloQtQTVggiKlr
p10
sS'_default_scopes'
p11
NsS'_id_token'
p12
NsS'token'
p13
Vya29.a0AfH6SMADVKllddldfmEb_1sLaJODtBmfc_aoOH1VzB7LfONRiPm6IoaQFKYlWlujeEJPTWE4aITRLPR5f4ecijb9FIFQW1YY4U6QkCJaXJqJZ5WaydE8n-tAAg1LaS06cz8ZFHN1K0R_yIgRQe8a6C2LiEmlmQ
p14
sS'_refresh_token'
p15
V1//0gSSkpYka-o89CgYIARAAGBASNwF-L9IrpJ0j0vyqfCxhQthBd9MPE4ztLAevax2FOE7ND40N98TGNTdd7WHfx4TXi67glLwMgl8
p16
sS'_scopes'
p17
(lp18
S'https://www.googleapis.com/auth/drive'
p19
asS'_client_id'
p20
V241533224810-leth62jvplsbjdckq28vbkqe5t9psisq.apps.googleusercontent.com
p21
sS'expiry'
p22
cdatetime
datetime
p23
(S'\x07\xe5\x05\x16\x11\x1a\x02\r\xd5\xe6'
p24
tp25
Rp26
sS'_rapt_token'
p27
Nsb.